target datalayout = "e-m:e-p270:32:32-p271:32:32-p272:64:64-i64:64-i128:128-f80:128-n8:16:32:64-S128"
target triple = "x86_64-pc-linux-gnu"

; Function Attrs: inlinehint mustprogress nounwind uwtable
define linkonce_odr hidden noundef zeroext i1 @_ZN2cv12cpu_baseline11hasNonZero_IiEEbPKT_m(ptr noundef %0, i64 noundef %1) #6 comdat {
  %3 = alloca ptr, align 8
  %4 = alloca i64, align 8
  %5 = alloca i8, align 1
  %6 = alloca i64, align 8
  store ptr %0, ptr %3, align 8, !tbaa !19
  store i64 %1, ptr %4, align 8, !tbaa !11
  call void @llvm.lifetime.start.p0(i64 1, ptr %5) #12
  store i8 0, ptr %5, align 1, !tbaa !13
  %7 = load i64, ptr %4, align 8, !tbaa !11
  %8 = icmp ugt i64 %7, 0
  br i1 %8, label %9, label %36

9:                                                ; preds = %2
  call void @llvm.lifetime.start.p0(i64 8, ptr %6) #12
  store i64 0, ptr %6, align 8, !tbaa !11
  br label %10

10:                                               ; preds = %32, %9
  %11 = load i8, ptr %5, align 1, !tbaa !13, !range !15, !noundef !16
  %12 = trunc i8 %11 to i1
  br i1 %12, label %17, label %13

13:                                               ; preds = %10
  %14 = load i64, ptr %6, align 8, !tbaa !11
  %15 = load i64, ptr %4, align 8, !tbaa !11
  %16 = icmp ult i64 %14, %15
  br label %17

17:                                               ; preds = %13, %10
  %18 = phi i1 [ false, %10 ], [ %16, %13 ]
  br i1 %18, label %19, label %35

19:                                               ; preds = %17
  %20 = load ptr, ptr %3, align 8, !tbaa !19
  %21 = load i64, ptr %6, align 8, !tbaa !11
  %22 = getelementptr inbounds nuw i32, ptr %20, i64 %21
  %23 = load i32, ptr %22, align 4, !tbaa !3
  %24 = icmp ne i32 %23, 0
  %25 = zext i1 %24 to i32
  %26 = load i8, ptr %5, align 1, !tbaa !13, !range !15, !noundef !16
  %27 = trunc i8 %26 to i1
  %28 = zext i1 %27 to i32
  %29 = or i32 %28, %25
  %30 = icmp ne i32 %29, 0
  %31 = zext i1 %30 to i8
  store i8 %31, ptr %5, align 1, !tbaa !13
  br label %32

32:                                               ; preds = %19
  %33 = load i64, ptr %6, align 8, !tbaa !11
  %34 = add i64 %33, 1
  store i64 %34, ptr %6, align 8, !tbaa !11
  br label %10, !llvm.loop !68

35:                                               ; preds = %17
  call void @llvm.lifetime.end.p0(i64 8, ptr %6) #12
  br label %36

36:                                               ; preds = %35, %2
  %37 = load i8, ptr %5, align 1, !tbaa !13, !range !15, !noundef !16
  %38 = trunc i8 %37 to i1
  call void @llvm.lifetime.end.p0(i64 1, ptr %5) #12
  ret i1 %38
}

; Function Attrs: mustprogress uwtable
define internal noundef zeroext i1 @_ZN2cv12cpu_baselineL13hasNonZero32sEPKim(ptr noundef %0, i64 noundef %1) #1 {
  %3 = alloca ptr, align 8
  %4 = alloca i64, align 8
  %5 = alloca i8, align 1
  %6 = alloca ptr, align 8
  store ptr %0, ptr %3, align 8, !tbaa !19
  store i64 %1, ptr %4, align 8, !tbaa !11
  call void @llvm.lifetime.start.p0(i64 1, ptr %5) #12
  store i8 0, ptr %5, align 1, !tbaa !13
  call void @llvm.lifetime.start.p0(i64 8, ptr %6) #12
  %7 = load ptr, ptr %3, align 8, !tbaa !19
  %8 = load i64, ptr %4, align 8, !tbaa !11
  %9 = getelementptr inbounds nuw i32, ptr %7, i64 %8
  store ptr %9, ptr %6, align 8, !tbaa !19
  %10 = load i8, ptr %5, align 1, !tbaa !13, !range !15, !noundef !16
  %11 = trunc i8 %10 to i1
  br i1 %11, label %21, label %12

12:                                               ; preds = %2
  %13 = load ptr, ptr %3, align 8, !tbaa !19
  %14 = load ptr, ptr %6, align 8, !tbaa !19
  %15 = load ptr, ptr %3, align 8, !tbaa !19
  %16 = ptrtoint ptr %14 to i64
  %17 = ptrtoint ptr %15 to i64
  %18 = sub i64 %16, %17
  %19 = sdiv exact i64 %18, 4
  %20 = call noundef zeroext i1 @_ZN2cv12cpu_baseline11hasNonZero_IiEEbPKT_m(ptr noundef %13, i64 noundef %19)
  br label %21

21:                                               ; preds = %12, %2
  %22 = phi i1 [ true, %2 ], [ %20, %12 ]
  call void @llvm.lifetime.end.p0(i64 8, ptr %6) #12
  call void @llvm.lifetime.end.p0(i64 1, ptr %5) #12
  ret i1 %22
}